; Function Attrs: mustprogress uwtable
define hidden void @_ZN3sat9lookahead17propagate_clausesENS_7literalE(ptr noundef nonnull align 8 dereferenceable(1160) %this, i32 %l.coerce) local_unnamed_addr #3 align 2 {
entry:
  tail call void @_ZN3sat9lookahead17propagate_ternaryENS_7literalE(ptr noundef nonnull align 8 dereferenceable(1160) %this, i32 %l.coerce)
  %m_search_mode = getelementptr inbounds i8, ptr %this, i64 988
  %0 = load i32, ptr %m_search_mode, align 4
  %cond = icmp eq i32 %0, 0
  br i1 %cond, label %sw.bb, label %sw.default

sw.bb:                                            ; preds = %entry
  tail call void @_ZN3sat9lookahead27propagate_clauses_searchingENS_7literalE(ptr noundef nonnull align 8 dereferenceable(1160) %this, i32 %l.coerce)
  br label %sw.epilog

sw.default:                                       ; preds = %entry
  tail call void @_ZN3sat9lookahead27propagate_clauses_lookaheadENS_7literalE(ptr noundef nonnull align 8 dereferenceable(1160) %this, i32 %l.coerce)
  br label %sw.epilog

sw.epilog:                                        ; preds = %sw.default, %sw.bb
  tail call void @_ZN3sat9lookahead18propagate_externalENS_7literalE(ptr noundef nonnull align 8 dereferenceable(1160) %this, i32 %l.coerce)
  ret void
}